; ModuleID = '9/1276.c'
source_filename = "9/1276.c"
target datalayout = "e-m:e-p270:32:32-p271:32:32-p272:64:64-i64:64-f80:128-n8:16:32:64-S128"
target triple = "x86_64-pc-linux-gnu"

%struct.Student = type { [10 x i8], i32 }

@.str = private unnamed_addr constant [3 x i8] c"%d\00", align 1
@.str.1 = private unnamed_addr constant [5 x i8] c"%s%d\00", align 1
@ill = common dso_local global [100 x %struct.Student] zeroinitializer, align 16
@.str.2 = private unnamed_addr constant [4 x i8] c"%s\0A\00", align 1

; Function Attrs: noinline nounwind uwtable
define dso_local i32 @main() #0 {
  %1 = alloca i32, align 4
  %2 = alloca i32, align 4
  %3 = alloca i32, align 4
  %4 = alloca i32, align 4
  %5 = alloca i32, align 4
  %6 = alloca [10 x i8], align 1
  store i32 0, i32* %1, align 4
  %7 = call i32 (i8*, ...) @__isoc99_scanf(i8* getelementptr inbounds ([3 x i8], [3 x i8]* @.str, i64 0, i64 0), i32* %4)
  store i32 0, i32* %2, align 4
  br label %8

8:                                                ; preds = %22, %0
  %9 = load i32, i32* %2, align 4
  %10 = load i32, i32* %4, align 4
  %11 = icmp slt i32 %9, %10
  br i1 %11, label %12, label %25

12:                                               ; preds = %8
  %13 = load i32, i32* %2, align 4
  %14 = sext i32 %13 to i64
  %15 = getelementptr inbounds [100 x %struct.Student], [100 x %struct.Student]* @ill, i64 0, i64 %14
  %16 = getelementptr inbounds %struct.Student, %struct.Student* %15, i32 0, i32 0
  %17 = load i32, i32* %2, align 4
  %18 = sext i32 %17 to i64
  %19 = getelementptr inbounds [100 x %struct.Student], [100 x %struct.Student]* @ill, i64 0, i64 %18
  %20 = getelementptr inbounds %struct.Student, %struct.Student* %19, i32 0, i32 1
  %21 = call i32 (i8*, ...) @__isoc99_scanf(i8* getelementptr inbounds ([5 x i8], [5 x i8]* @.str.1, i64 0, i64 0), [10 x i8]* %16, i32* %20)
  br label %22

22:                                               ; preds = %12
  %23 = load i32, i32* %2, align 4
  %24 = add nsw i32 %23, 1
  store i32 %24, i32* %2, align 4
  br label %8

25:                                               ; preds = %8
  store i32 0, i32* %3, align 4
  br label %26

26:                                               ; preds = %112, %25
  %27 = load i32, i32* %3, align 4
  %28 = load i32, i32* %4, align 4
  %29 = sub nsw i32 %28, 1
  %30 = icmp slt i32 %27, %29
  br i1 %30, label %31, label %115

31:                                               ; preds = %26
  %32 = load i32, i32* %4, align 4
  %33 = sub nsw i32 %32, 1
  store i32 %33, i32* %2, align 4
  br label %34

34:                                               ; preds = %108, %31
  %35 = load i32, i32* %2, align 4
  %36 = load i32, i32* %3, align 4
  %37 = icmp sgt i32 %35, %36
  br i1 %37, label %38, label %111

38:                                               ; preds = %34
  %39 = load i32, i32* %2, align 4
  %40 = sext i32 %39 to i64
  %41 = getelementptr inbounds [100 x %struct.Student], [100 x %struct.Student]* @ill, i64 0, i64 %40
  %42 = getelementptr inbounds %struct.Student, %struct.Student* %41, i32 0, i32 1
  %43 = load i32, i32* %42, align 4
  %44 = icmp sge i32 %43, 60
  br i1 %44, label %45, label %107

45:                                               ; preds = %38
  %46 = load i32, i32* %2, align 4
  %47 = sext i32 %46 to i64
  %48 = getelementptr inbounds [100 x %struct.Student], [100 x %struct.Student]* @ill, i64 0, i64 %47
  %49 = getelementptr inbounds %struct.Student, %struct.Student* %48, i32 0, i32 1
  %50 = load i32, i32* %49, align 4
  %51 = load i32, i32* %2, align 4
  %52 = sub nsw i32 %51, 1
  %53 = sext i32 %52 to i64
  %54 = getelementptr inbounds [100 x %struct.Student], [100 x %struct.Student]* @ill, i64 0, i64 %53
  %55 = getelementptr inbounds %struct.Student, %struct.Student* %54, i32 0, i32 1
  %56 = load i32, i32* %55, align 4
  %57 = icmp sgt i32 %50, %56
  br i1 %57, label %58, label %107

58:                                               ; preds = %45
  %59 = getelementptr inbounds [10 x i8], [10 x i8]* %6, i64 0, i64 0
  %60 = load i32, i32* %2, align 4
  %61 = sext i32 %60 to i64
  %62 = getelementptr inbounds [100 x %struct.Student], [100 x %struct.Student]* @ill, i64 0, i64 %61
  %63 = getelementptr inbounds %struct.Student, %struct.Student* %62, i32 0, i32 0
  %64 = getelementptr inbounds [10 x i8], [10 x i8]* %63, i64 0, i64 0
  %65 = call i8* @strcpy(i8* %59, i8* %64) #3
  %66 = load i32, i32* %2, align 4
  %67 = sext i32 %66 to i64
  %68 = getelementptr inbounds [100 x %struct.Student], [100 x %struct.Student]* @ill, i64 0, i64 %67
  %69 = getelementptr inbounds %struct.Student, %struct.Student* %68, i32 0, i32 1
  %70 = load i32, i32* %69, align 4
  store i32 %70, i32* %5, align 4
  %71 = load i32, i32* %2, align 4
  %72 = sext i32 %71 to i64
  %73 = getelementptr inbounds [100 x %struct.Student], [100 x %struct.Student]* @ill, i64 0, i64 %72
  %74 = getelementptr inbounds %struct.Student, %struct.Student* %73, i32 0, i32 0
  %75 = getelementptr inbounds [10 x i8], [10 x i8]* %74, i64 0, i64 0
  %76 = load i32, i32* %2, align 4
  %77 = sub nsw i32 %76, 1
  %78 = sext i32 %77 to i64
  %79 = getelementptr inbounds [100 x %struct.Student], [100 x %struct.Student]* @ill, i64 0, i64 %78
  %80 = getelementptr inbounds %struct.Student, %struct.Student* %79, i32 0, i32 0
  %81 = getelementptr inbounds [10 x i8], [10 x i8]* %80, i64 0, i64 0
  %82 = call i8* @strcpy(i8* %75, i8* %81) #3
  %83 = load i32, i32* %2, align 4
  %84 = sub nsw i32 %83, 1
  %85 = sext i32 %84 to i64
  %86 = getelementptr inbounds [100 x %struct.Student], [100 x %struct.Student]* @ill, i64 0, i64 %85
  %87 = getelementptr inbounds %struct.Student, %struct.Student* %86, i32 0, i32 1
  %88 = load i32, i32* %87, align 4
  %89 = load i32, i32* %2, align 4
  %90 = sext i32 %89 to i64
  %91 = getelementptr inbounds [100 x %struct.Student], [100 x %struct.Student]* @ill, i64 0, i64 %90
  %92 = getelementptr inbounds %struct.Student, %struct.Student* %91, i32 0, i32 1
  store i32 %88, i32* %92, align 4
  %93 = load i32, i32* %2, align 4
  %94 = sub nsw i32 %93, 1
  %95 = sext i32 %94 to i64
  %96 = getelementptr inbounds [100 x %struct.Student], [100 x %struct.Student]* @ill, i64 0, i64 %95
  %97 = getelementptr inbounds %struct.Student, %struct.Student* %96, i32 0, i32 0
  %98 = getelementptr inbounds [10 x i8], [10 x i8]* %97, i64 0, i64 0
  %99 = getelementptr inbounds [10 x i8], [10 x i8]* %6, i64 0, i64 0
  %100 = call i8* @strcpy(i8* %98, i8* %99) #3
  %101 = load i32, i32* %5, align 4
  %102 = load i32, i32* %2, align 4
  %103 = sub nsw i32 %102, 1
  %104 = sext i32 %103 to i64
  %105 = getelementptr inbounds [100 x %struct.Student], [100 x %struct.Student]* @ill, i64 0, i64 %104
  %106 = getelementptr inbounds %struct.Student, %struct.Student* %105, i32 0, i32 1
  store i32 %101, i32* %106, align 4
  br label %107

107:                                              ; preds = %58, %45, %38
  br label %108

108:                                              ; preds = %107
  %109 = load i32, i32* %2, align 4
  %110 = add nsw i32 %109, -1
  store i32 %110, i32* %2, align 4
  br label %34

111:                                              ; preds = %34
  br label %112

112:                                              ; preds = %111
  %113 = load i32, i32* %3, align 4
  %114 = add nsw i32 %113, 1
  store i32 %114, i32* %3, align 4
  br label %26

115:                                              ; preds = %26
  store i32 0, i32* %2, align 4
  br label %116

116:                                              ; preds = %127, %115
  %117 = load i32, i32* %2, align 4
  %118 = load i32, i32* %4, align 4
  %119 = icmp slt i32 %117, %118
  br i1 %119, label %120, label %130

120:                                              ; preds = %116
  %121 = load i32, i32* %2, align 4
  %122 = sext i32 %121 to i64
  %123 = getelementptr inbounds [100 x %struct.Student], [100 x %struct.Student]* @ill, i64 0, i64 %122
  %124 = getelementptr inbounds %struct.Student, %struct.Student* %123, i32 0, i32 0
  %125 = getelementptr inbounds [10 x i8], [10 x i8]* %124, i64 0, i64 0
  %126 = call i32 (i8*, ...) @printf(i8* getelementptr inbounds ([4 x i8], [4 x i8]* @.str.2, i64 0, i64 0), i8* %125)
  br label %127

127:                                              ; preds = %120
  %128 = load i32, i32* %2, align 4
  %129 = add nsw i32 %128, 1
  store i32 %129, i32* %2, align 4
  br label %116

130:                                              ; preds = %116
  %131 = load i32, i32* %1, align 4
  ret i32 %131
}

declare dso_local i32 @__isoc99_scanf(i8*, ...) #1

; Function Attrs: nounwind
declare dso_local i8* @strcpy(i8*, i8*) #2

declare dso_local i32 @printf(i8*, ...) #1


!llvm.module.flags = !{!0}
!llvm.ident = !{!1}

!0 = !{i32 1, !"wchar_size", i32 4}
!1 = !{!"clang version 10.0.0-4ubuntu1 "}
